ARM GAS  C:\Users\papai\AppData\Local\Temp\ccZ1HF3L.s 			page 1


   1              		.cpu cortex-m4
   2              		.arch armv7e-m
   3              		.fpu fpv4-sp-d16
   4              		.eabi_attribute 27, 1
   5              		.eabi_attribute 28, 1
   6              		.eabi_attribute 20, 1
   7              		.eabi_attribute 21, 1
   8              		.eabi_attribute 23, 3
   9              		.eabi_attribute 24, 1
  10              		.eabi_attribute 25, 1
  11              		.eabi_attribute 26, 1
  12              		.eabi_attribute 30, 1
  13              		.eabi_attribute 34, 1
  14              		.eabi_attribute 18, 4
  15              		.file	"freertos.c"
  16              		.text
  17              	.Ltext0:
  18              		.cfi_sections	.debug_frame
  19              		.section	.text.Task_Led,"ax",%progbits
  20              		.align	1
  21              		.global	Task_Led
  22              		.syntax unified
  23              		.thumb
  24              		.thumb_func
  26              	Task_Led:
  27              	.LFB139:
  28              		.file 1 "Core/Src/freertos.c"
   1:Core/Src/freertos.c **** /* USER CODE BEGIN Header */
   2:Core/Src/freertos.c **** /**
   3:Core/Src/freertos.c ****   ******************************************************************************
   4:Core/Src/freertos.c ****   * File Name          : freertos.c
   5:Core/Src/freertos.c ****   * Description        : Code for freertos applications
   6:Core/Src/freertos.c ****   ******************************************************************************
   7:Core/Src/freertos.c ****   * @attention
   8:Core/Src/freertos.c ****   *
   9:Core/Src/freertos.c ****   * Copyright (c) 2023 STMicroelectronics.
  10:Core/Src/freertos.c ****   * All rights reserved.
  11:Core/Src/freertos.c ****   *
  12:Core/Src/freertos.c ****   * This software is licensed under terms that can be found in the LICENSE file
  13:Core/Src/freertos.c ****   * in the root directory of this software component.
  14:Core/Src/freertos.c ****   * If no LICENSE file comes with this software, it is provided AS-IS.
  15:Core/Src/freertos.c ****   *
  16:Core/Src/freertos.c ****   ******************************************************************************
  17:Core/Src/freertos.c ****   */
  18:Core/Src/freertos.c **** /* USER CODE END Header */
  19:Core/Src/freertos.c **** 
  20:Core/Src/freertos.c **** /* Includes ------------------------------------------------------------------*/
  21:Core/Src/freertos.c **** #include "FreeRTOS.h"
  22:Core/Src/freertos.c **** #include "task.h"
  23:Core/Src/freertos.c **** #include "main.h"
  24:Core/Src/freertos.c **** #include "cmsis_os.h"
  25:Core/Src/freertos.c **** 
  26:Core/Src/freertos.c **** /* Private includes ----------------------------------------------------------*/
  27:Core/Src/freertos.c **** /* USER CODE BEGIN Includes */
  28:Core/Src/freertos.c **** 
  29:Core/Src/freertos.c **** #include "gpio.h"
  30:Core/Src/freertos.c **** 
ARM GAS  C:\Users\papai\AppData\Local\Temp\ccZ1HF3L.s 			page 2


  31:Core/Src/freertos.c **** /* USER CODE END Includes */
  32:Core/Src/freertos.c **** 
  33:Core/Src/freertos.c **** /* Private typedef -----------------------------------------------------------*/
  34:Core/Src/freertos.c **** typedef StaticTask_t osStaticThreadDef_t;
  35:Core/Src/freertos.c **** /* USER CODE BEGIN PTD */
  36:Core/Src/freertos.c **** 
  37:Core/Src/freertos.c **** /* USER CODE END PTD */
  38:Core/Src/freertos.c **** 
  39:Core/Src/freertos.c **** /* Private define ------------------------------------------------------------*/
  40:Core/Src/freertos.c **** /* USER CODE BEGIN PD */
  41:Core/Src/freertos.c **** 
  42:Core/Src/freertos.c **** /* USER CODE END PD */
  43:Core/Src/freertos.c **** 
  44:Core/Src/freertos.c **** /* Private macro -------------------------------------------------------------*/
  45:Core/Src/freertos.c **** /* USER CODE BEGIN PM */
  46:Core/Src/freertos.c **** 
  47:Core/Src/freertos.c **** /* USER CODE END PM */
  48:Core/Src/freertos.c **** 
  49:Core/Src/freertos.c **** /* Private variables ---------------------------------------------------------*/
  50:Core/Src/freertos.c **** /* USER CODE BEGIN Variables */
  51:Core/Src/freertos.c **** 
  52:Core/Src/freertos.c **** /* USER CODE END Variables */
  53:Core/Src/freertos.c **** /* Definitions for Led */
  54:Core/Src/freertos.c **** osThreadId_t LedHandle;
  55:Core/Src/freertos.c **** uint32_t Task_LedBuffer[ 128 ];
  56:Core/Src/freertos.c **** osStaticThreadDef_t Task_LedControlBlock;
  57:Core/Src/freertos.c **** const osThreadAttr_t Led_attributes = {
  58:Core/Src/freertos.c ****   .name = "Led",
  59:Core/Src/freertos.c ****   .cb_mem = &Task_LedControlBlock,
  60:Core/Src/freertos.c ****   .cb_size = sizeof(Task_LedControlBlock),
  61:Core/Src/freertos.c ****   .stack_mem = &Task_LedBuffer[0],
  62:Core/Src/freertos.c ****   .stack_size = sizeof(Task_LedBuffer),
  63:Core/Src/freertos.c ****   .priority = (osPriority_t) osPriorityNormal,
  64:Core/Src/freertos.c **** };
  65:Core/Src/freertos.c **** 
  66:Core/Src/freertos.c **** /* Private function prototypes -----------------------------------------------*/
  67:Core/Src/freertos.c **** /* USER CODE BEGIN FunctionPrototypes */
  68:Core/Src/freertos.c **** 
  69:Core/Src/freertos.c **** /* USER CODE END FunctionPrototypes */
  70:Core/Src/freertos.c **** 
  71:Core/Src/freertos.c **** void Task_Led(void *argument);
  72:Core/Src/freertos.c **** 
  73:Core/Src/freertos.c **** void MX_FREERTOS_Init(void); /* (MISRA C 2004 rule 8.1) */
  74:Core/Src/freertos.c **** 
  75:Core/Src/freertos.c **** /* Hook prototypes */
  76:Core/Src/freertos.c **** void configureTimerForRunTimeStats(void);
  77:Core/Src/freertos.c **** unsigned long getRunTimeCounterValue(void);
  78:Core/Src/freertos.c **** void vApplicationIdleHook(void);
  79:Core/Src/freertos.c **** void vApplicationStackOverflowHook(xTaskHandle xTask, signed char *pcTaskName);
  80:Core/Src/freertos.c **** 
  81:Core/Src/freertos.c **** /* USER CODE BEGIN 1 */
  82:Core/Src/freertos.c **** /* Functions needed when configGENERATE_RUN_TIME_STATS is on */
  83:Core/Src/freertos.c **** __weak void configureTimerForRunTimeStats(void)
  84:Core/Src/freertos.c **** {
  85:Core/Src/freertos.c **** 
  86:Core/Src/freertos.c **** }
  87:Core/Src/freertos.c **** 
ARM GAS  C:\Users\papai\AppData\Local\Temp\ccZ1HF3L.s 			page 3


  88:Core/Src/freertos.c **** __weak unsigned long getRunTimeCounterValue(void)
  89:Core/Src/freertos.c **** {
  90:Core/Src/freertos.c **** return 0;
  91:Core/Src/freertos.c **** }
  92:Core/Src/freertos.c **** /* USER CODE END 1 */
  93:Core/Src/freertos.c **** 
  94:Core/Src/freertos.c **** /* USER CODE BEGIN 2 */
  95:Core/Src/freertos.c **** void vApplicationIdleHook( void )
  96:Core/Src/freertos.c **** {
  97:Core/Src/freertos.c ****    /* vApplicationIdleHook() will only be called if configUSE_IDLE_HOOK is set
  98:Core/Src/freertos.c ****    to 1 in FreeRTOSConfig.h. It will be called on each iteration of the idle
  99:Core/Src/freertos.c ****    task. It is essential that code added to this hook function never attempts
 100:Core/Src/freertos.c ****    to block in any way (for example, call xQueueReceive() with a block time
 101:Core/Src/freertos.c ****    specified, or call vTaskDelay()). If the application makes use of the
 102:Core/Src/freertos.c ****    vTaskDelete() API function (as this demo application does) then it is also
 103:Core/Src/freertos.c ****    important that vApplicationIdleHook() is permitted to return to its calling
 104:Core/Src/freertos.c ****    function, because it is the responsibility of the idle task to clean up
 105:Core/Src/freertos.c ****    memory allocated by the kernel to any task that has since been deleted. */
 106:Core/Src/freertos.c **** }
 107:Core/Src/freertos.c **** /* USER CODE END 2 */
 108:Core/Src/freertos.c **** 
 109:Core/Src/freertos.c **** /* USER CODE BEGIN 4 */
 110:Core/Src/freertos.c **** void vApplicationStackOverflowHook(xTaskHandle xTask, signed char *pcTaskName)
 111:Core/Src/freertos.c **** {
 112:Core/Src/freertos.c ****    /* Run time stack overflow checking is performed if
 113:Core/Src/freertos.c ****    configCHECK_FOR_STACK_OVERFLOW is defined to 1 or 2. This hook function is
 114:Core/Src/freertos.c ****    called if a stack overflow is detected. */
 115:Core/Src/freertos.c **** }
 116:Core/Src/freertos.c **** /* USER CODE END 4 */
 117:Core/Src/freertos.c **** 
 118:Core/Src/freertos.c **** /**
 119:Core/Src/freertos.c ****   * @brief  FreeRTOS initialization
 120:Core/Src/freertos.c ****   * @param  None
 121:Core/Src/freertos.c ****   * @retval None
 122:Core/Src/freertos.c ****   */
 123:Core/Src/freertos.c **** void MX_FREERTOS_Init(void) {
 124:Core/Src/freertos.c ****   /* USER CODE BEGIN Init */
 125:Core/Src/freertos.c **** 
 126:Core/Src/freertos.c ****   /* USER CODE END Init */
 127:Core/Src/freertos.c **** 
 128:Core/Src/freertos.c ****   /* USER CODE BEGIN RTOS_MUTEX */
 129:Core/Src/freertos.c ****   /* add mutexes, ... */
 130:Core/Src/freertos.c ****   /* USER CODE END RTOS_MUTEX */
 131:Core/Src/freertos.c **** 
 132:Core/Src/freertos.c ****   /* USER CODE BEGIN RTOS_SEMAPHORES */
 133:Core/Src/freertos.c ****   /* add semaphores, ... */
 134:Core/Src/freertos.c ****   /* USER CODE END RTOS_SEMAPHORES */
 135:Core/Src/freertos.c **** 
 136:Core/Src/freertos.c ****   /* USER CODE BEGIN RTOS_TIMERS */
 137:Core/Src/freertos.c ****   /* start timers, add new ones, ... */
 138:Core/Src/freertos.c ****   /* USER CODE END RTOS_TIMERS */
 139:Core/Src/freertos.c **** 
 140:Core/Src/freertos.c ****   /* USER CODE BEGIN RTOS_QUEUES */
 141:Core/Src/freertos.c ****   /* add queues, ... */
 142:Core/Src/freertos.c ****   /* USER CODE END RTOS_QUEUES */
 143:Core/Src/freertos.c **** 
 144:Core/Src/freertos.c ****   /* Create the thread(s) */
ARM GAS  C:\Users\papai\AppData\Local\Temp\ccZ1HF3L.s 			page 4


 145:Core/Src/freertos.c ****   /* creation of Led */
 146:Core/Src/freertos.c ****   LedHandle = osThreadNew(Task_Led, NULL, &Led_attributes);
 147:Core/Src/freertos.c **** 
 148:Core/Src/freertos.c ****   /* USER CODE BEGIN RTOS_THREADS */
 149:Core/Src/freertos.c ****   /* add threads, ... */
 150:Core/Src/freertos.c ****   /* USER CODE END RTOS_THREADS */
 151:Core/Src/freertos.c **** 
 152:Core/Src/freertos.c ****   /* USER CODE BEGIN RTOS_EVENTS */
 153:Core/Src/freertos.c ****   /* add events, ... */
 154:Core/Src/freertos.c ****   /* USER CODE END RTOS_EVENTS */
 155:Core/Src/freertos.c **** 
 156:Core/Src/freertos.c **** }
 157:Core/Src/freertos.c **** 
 158:Core/Src/freertos.c **** /* USER CODE BEGIN Header_Task_Led */
 159:Core/Src/freertos.c **** /**
 160:Core/Src/freertos.c ****   * @brief  Function implementing the Led thread.
 161:Core/Src/freertos.c ****   * @param  argument: Not used
 162:Core/Src/freertos.c ****   * @retval None
 163:Core/Src/freertos.c ****   */
 164:Core/Src/freertos.c **** /* USER CODE END Header_Task_Led */
 165:Core/Src/freertos.c **** void Task_Led(void *argument)
 166:Core/Src/freertos.c **** {
  29              		.loc 1 166 1 view -0
  30              		.cfi_startproc
  31              		@ Volatile: function does not return.
  32              		@ args = 0, pretend = 0, frame = 0
  33              		@ frame_needed = 0, uses_anonymous_args = 0
  34              	.LVL0:
  35              		.loc 1 166 1 is_stmt 0 view .LVU1
  36 0000 08B5     		push	{r3, lr}
  37              	.LCFI0:
  38              		.cfi_def_cfa_offset 8
  39              		.cfi_offset 3, -8
  40              		.cfi_offset 14, -4
  41              	.LVL1:
  42              	.L2:
 167:Core/Src/freertos.c ****   /* USER CODE BEGIN Task_Led */
 168:Core/Src/freertos.c ****   /* Infinite loop */
 169:Core/Src/freertos.c ****   for(;;)
  43              		.loc 1 169 3 is_stmt 1 discriminator 1 view .LVU2
 170:Core/Src/freertos.c ****   {
 171:Core/Src/freertos.c ****     osDelay(1);
  44              		.loc 1 171 5 discriminator 1 view .LVU3
  45 0002 0120     		movs	r0, #1
  46 0004 FFF7FEFF 		bl	osDelay
  47              	.LVL2:
 172:Core/Src/freertos.c ****     HAL_GPIO_TogglePin(LedD3_GPIO_Port, LedD3_Pin);
  48              		.loc 1 172 5 discriminator 1 view .LVU4
  49 0008 8021     		movs	r1, #128
  50 000a 0248     		ldr	r0, .L4
  51 000c FFF7FEFF 		bl	HAL_GPIO_TogglePin
  52              	.LVL3:
 169:Core/Src/freertos.c ****   {
  53              		.loc 1 169 8 discriminator 1 view .LVU5
  54 0010 F7E7     		b	.L2
  55              	.L5:
  56 0012 00BF     		.align	2
ARM GAS  C:\Users\papai\AppData\Local\Temp\ccZ1HF3L.s 			page 5


  57              	.L4:
  58 0014 00000240 		.word	1073872896
  59              		.cfi_endproc
  60              	.LFE139:
  62              		.section	.text.configureTimerForRunTimeStats,"ax",%progbits
  63              		.align	1
  64              		.weak	configureTimerForRunTimeStats
  65              		.syntax unified
  66              		.thumb
  67              		.thumb_func
  69              	configureTimerForRunTimeStats:
  70              	.LFB134:
  84:Core/Src/freertos.c **** 
  71              		.loc 1 84 1 view -0
  72              		.cfi_startproc
  73              		@ args = 0, pretend = 0, frame = 0
  74              		@ frame_needed = 0, uses_anonymous_args = 0
  75              		@ link register save eliminated.
  86:Core/Src/freertos.c **** 
  76              		.loc 1 86 1 view .LVU7
  77 0000 7047     		bx	lr
  78              		.cfi_endproc
  79              	.LFE134:
  81              		.section	.text.getRunTimeCounterValue,"ax",%progbits
  82              		.align	1
  83              		.weak	getRunTimeCounterValue
  84              		.syntax unified
  85              		.thumb
  86              		.thumb_func
  88              	getRunTimeCounterValue:
  89              	.LFB135:
  89:Core/Src/freertos.c **** return 0;
  90              		.loc 1 89 1 view -0
  91              		.cfi_startproc
  92              		@ args = 0, pretend = 0, frame = 0
  93              		@ frame_needed = 0, uses_anonymous_args = 0
  94              		@ link register save eliminated.
  90:Core/Src/freertos.c **** }
  95              		.loc 1 90 1 view .LVU9
  91:Core/Src/freertos.c **** /* USER CODE END 1 */
  96              		.loc 1 91 1 is_stmt 0 view .LVU10
  97 0000 0020     		movs	r0, #0
  98 0002 7047     		bx	lr
  99              		.cfi_endproc
 100              	.LFE135:
 102              		.section	.text.vApplicationIdleHook,"ax",%progbits
 103              		.align	1
 104              		.global	vApplicationIdleHook
 105              		.syntax unified
 106              		.thumb
 107              		.thumb_func
 109              	vApplicationIdleHook:
 110              	.LFB136:
  96:Core/Src/freertos.c ****    /* vApplicationIdleHook() will only be called if configUSE_IDLE_HOOK is set
 111              		.loc 1 96 1 is_stmt 1 view -0
 112              		.cfi_startproc
 113              		@ args = 0, pretend = 0, frame = 0
ARM GAS  C:\Users\papai\AppData\Local\Temp\ccZ1HF3L.s 			page 6


 114              		@ frame_needed = 0, uses_anonymous_args = 0
 115              		@ link register save eliminated.
 106:Core/Src/freertos.c **** /* USER CODE END 2 */
 116              		.loc 1 106 1 view .LVU12
 117 0000 7047     		bx	lr
 118              		.cfi_endproc
 119              	.LFE136:
 121              		.section	.text.vApplicationStackOverflowHook,"ax",%progbits
 122              		.align	1
 123              		.global	vApplicationStackOverflowHook
 124              		.syntax unified
 125              		.thumb
 126              		.thumb_func
 128              	vApplicationStackOverflowHook:
 129              	.LVL4:
 130              	.LFB137:
 111:Core/Src/freertos.c ****    /* Run time stack overflow checking is performed if
 131              		.loc 1 111 1 view -0
 132              		.cfi_startproc
 133              		@ args = 0, pretend = 0, frame = 0
 134              		@ frame_needed = 0, uses_anonymous_args = 0
 135              		@ link register save eliminated.
 115:Core/Src/freertos.c **** /* USER CODE END 4 */
 136              		.loc 1 115 1 view .LVU14
 137 0000 7047     		bx	lr
 138              		.cfi_endproc
 139              	.LFE137:
 141              		.section	.text.MX_FREERTOS_Init,"ax",%progbits
 142              		.align	1
 143              		.global	MX_FREERTOS_Init
 144              		.syntax unified
 145              		.thumb
 146              		.thumb_func
 148              	MX_FREERTOS_Init:
 149              	.LFB138:
 123:Core/Src/freertos.c ****   /* USER CODE BEGIN Init */
 150              		.loc 1 123 29 view -0
 151              		.cfi_startproc
 152              		@ args = 0, pretend = 0, frame = 0
 153              		@ frame_needed = 0, uses_anonymous_args = 0
 154 0000 08B5     		push	{r3, lr}
 155              	.LCFI1:
 156              		.cfi_def_cfa_offset 8
 157              		.cfi_offset 3, -8
 158              		.cfi_offset 14, -4
 146:Core/Src/freertos.c **** 
 159              		.loc 1 146 3 view .LVU16
 146:Core/Src/freertos.c **** 
 160              		.loc 1 146 15 is_stmt 0 view .LVU17
 161 0002 044A     		ldr	r2, .L12
 162 0004 0021     		movs	r1, #0
 163 0006 0448     		ldr	r0, .L12+4
 164 0008 FFF7FEFF 		bl	osThreadNew
 165              	.LVL5:
 146:Core/Src/freertos.c **** 
 166              		.loc 1 146 13 view .LVU18
 167 000c 034B     		ldr	r3, .L12+8
ARM GAS  C:\Users\papai\AppData\Local\Temp\ccZ1HF3L.s 			page 7


 168 000e 1860     		str	r0, [r3]
 156:Core/Src/freertos.c **** 
 169              		.loc 1 156 1 view .LVU19
 170 0010 08BD     		pop	{r3, pc}
 171              	.L13:
 172 0012 00BF     		.align	2
 173              	.L12:
 174 0014 00000000 		.word	.LANCHOR0
 175 0018 00000000 		.word	Task_Led
 176 001c 00000000 		.word	.LANCHOR1
 177              		.cfi_endproc
 178              	.LFE138:
 180              		.global	Led_attributes
 181              		.section	.rodata.str1.4,"aMS",%progbits,1
 182              		.align	2
 183              	.LC0:
 184 0000 4C656400 		.ascii	"Led\000"
 185              		.global	Task_LedControlBlock
 186              		.global	Task_LedBuffer
 187              		.global	LedHandle
 188              		.section	.bss.LedHandle,"aw",%nobits
 189              		.align	2
 190              		.set	.LANCHOR1,. + 0
 193              	LedHandle:
 194 0000 00000000 		.space	4
 195              		.section	.bss.Task_LedBuffer,"aw",%nobits
 196              		.align	2
 199              	Task_LedBuffer:
 200 0000 00000000 		.space	512
 200      00000000 
 200      00000000 
 200      00000000 
 200      00000000 
 201              		.section	.bss.Task_LedControlBlock,"aw",%nobits
 202              		.align	2
 205              	Task_LedControlBlock:
 206 0000 00000000 		.space	96
 206      00000000 
 206      00000000 
 206      00000000 
 206      00000000 
 207              		.section	.rodata.Led_attributes,"a"
 208              		.align	2
 209              		.set	.LANCHOR0,. + 0
 212              	Led_attributes:
 213 0000 00000000 		.word	.LC0
 214 0004 00000000 		.space	4
 215 0008 00000000 		.word	Task_LedControlBlock
 216 000c 60000000 		.word	96
 217 0010 00000000 		.word	Task_LedBuffer
 218 0014 00020000 		.word	512
 219 0018 18000000 		.word	24
 220 001c 00000000 		.space	8
 220      00000000 
 221              		.text
 222              	.Letext0:
 223              		.file 2 "c:\\program files (x86)\\gnu arm embedded toolchain\\10 2021.10\\arm-none-eabi\\include\\
ARM GAS  C:\Users\papai\AppData\Local\Temp\ccZ1HF3L.s 			page 8


 224              		.file 3 "c:\\program files (x86)\\gnu arm embedded toolchain\\10 2021.10\\arm-none-eabi\\include\\
 225              		.file 4 "Middlewares/Third_Party/FreeRTOS/Source/portable/GCC/ARM_CM4F/portmacro.h"
 226              		.file 5 "Middlewares/Third_Party/FreeRTOS/Source/include/FreeRTOS.h"
 227              		.file 6 "Middlewares/Third_Party/FreeRTOS/Source/include/task.h"
 228              		.file 7 "Drivers/CMSIS/Device/ST/STM32F4xx/Include/stm32f407xx.h"
 229              		.file 8 "Middlewares/Third_Party/FreeRTOS/Source/CMSIS_RTOS_V2/cmsis_os2.h"
 230              		.file 9 "Drivers/STM32F4xx_HAL_Driver/Inc/stm32f4xx_hal_gpio.h"
ARM GAS  C:\Users\papai\AppData\Local\Temp\ccZ1HF3L.s 			page 9

