ARM GAS  C:\Users\papai\AppData\Local\Temp\ccYc4VnP.s 			page 1


   1              		.cpu cortex-m4
   2              		.arch armv7e-m
   3              		.fpu fpv4-sp-d16
   4              		.eabi_attribute 27, 1
   5              		.eabi_attribute 28, 1
   6              		.eabi_attribute 20, 1
   7              		.eabi_attribute 21, 1
   8              		.eabi_attribute 23, 3
   9              		.eabi_attribute 24, 1
  10              		.eabi_attribute 25, 1
  11              		.eabi_attribute 26, 1
  12              		.eabi_attribute 30, 1
  13              		.eabi_attribute 34, 1
  14              		.eabi_attribute 18, 4
  15              		.file	"spi.c"
  16              		.text
  17              	.Ltext0:
  18              		.cfi_sections	.debug_frame
  19              		.section	.text.MX_SPI1_Init,"ax",%progbits
  20              		.align	1
  21              		.global	MX_SPI1_Init
  22              		.syntax unified
  23              		.thumb
  24              		.thumb_func
  26              	MX_SPI1_Init:
  27              	.LFB130:
  28              		.file 1 "Core/Src/spi.c"
   1:Core/Src/spi.c **** /* USER CODE BEGIN Header */
   2:Core/Src/spi.c **** /**
   3:Core/Src/spi.c ****   ******************************************************************************
   4:Core/Src/spi.c ****   * @file    spi.c
   5:Core/Src/spi.c ****   * @brief   This file provides code for the configuration
   6:Core/Src/spi.c ****   *          of the SPI instances.
   7:Core/Src/spi.c ****   ******************************************************************************
   8:Core/Src/spi.c ****   * @attention
   9:Core/Src/spi.c ****   *
  10:Core/Src/spi.c ****   * Copyright (c) 2023 STMicroelectronics.
  11:Core/Src/spi.c ****   * All rights reserved.
  12:Core/Src/spi.c ****   *
  13:Core/Src/spi.c ****   * This software is licensed under terms that can be found in the LICENSE file
  14:Core/Src/spi.c ****   * in the root directory of this software component.
  15:Core/Src/spi.c ****   * If no LICENSE file comes with this software, it is provided AS-IS.
  16:Core/Src/spi.c ****   *
  17:Core/Src/spi.c ****   ******************************************************************************
  18:Core/Src/spi.c ****   */
  19:Core/Src/spi.c **** /* USER CODE END Header */
  20:Core/Src/spi.c **** /* Includes ------------------------------------------------------------------*/
  21:Core/Src/spi.c **** #include "spi.h"
  22:Core/Src/spi.c **** 
  23:Core/Src/spi.c **** /* USER CODE BEGIN 0 */
  24:Core/Src/spi.c **** 
  25:Core/Src/spi.c **** /* USER CODE END 0 */
  26:Core/Src/spi.c **** 
  27:Core/Src/spi.c **** SPI_HandleTypeDef hspi1;
  28:Core/Src/spi.c **** 
  29:Core/Src/spi.c **** /* SPI1 init function */
  30:Core/Src/spi.c **** void MX_SPI1_Init(void)
ARM GAS  C:\Users\papai\AppData\Local\Temp\ccYc4VnP.s 			page 2


  31:Core/Src/spi.c **** {
  29              		.loc 1 31 1 view -0
  30              		.cfi_startproc
  31              		@ args = 0, pretend = 0, frame = 0
  32              		@ frame_needed = 0, uses_anonymous_args = 0
  33 0000 08B5     		push	{r3, lr}
  34              	.LCFI0:
  35              		.cfi_def_cfa_offset 8
  36              		.cfi_offset 3, -8
  37              		.cfi_offset 14, -4
  32:Core/Src/spi.c **** 
  33:Core/Src/spi.c ****   /* USER CODE BEGIN SPI1_Init 0 */
  34:Core/Src/spi.c **** 
  35:Core/Src/spi.c ****   /* USER CODE END SPI1_Init 0 */
  36:Core/Src/spi.c **** 
  37:Core/Src/spi.c ****   /* USER CODE BEGIN SPI1_Init 1 */
  38:Core/Src/spi.c **** 
  39:Core/Src/spi.c ****   /* USER CODE END SPI1_Init 1 */
  40:Core/Src/spi.c ****   hspi1.Instance = SPI1;
  38              		.loc 1 40 3 view .LVU1
  39              		.loc 1 40 18 is_stmt 0 view .LVU2
  40 0002 0D48     		ldr	r0, .L5
  41 0004 0D4B     		ldr	r3, .L5+4
  42 0006 0360     		str	r3, [r0]
  41:Core/Src/spi.c ****   hspi1.Init.Mode = SPI_MODE_MASTER;
  43              		.loc 1 41 3 is_stmt 1 view .LVU3
  44              		.loc 1 41 19 is_stmt 0 view .LVU4
  45 0008 4FF48273 		mov	r3, #260
  46 000c 4360     		str	r3, [r0, #4]
  42:Core/Src/spi.c ****   hspi1.Init.Direction = SPI_DIRECTION_2LINES;
  47              		.loc 1 42 3 is_stmt 1 view .LVU5
  48              		.loc 1 42 24 is_stmt 0 view .LVU6
  49 000e 0023     		movs	r3, #0
  50 0010 8360     		str	r3, [r0, #8]
  43:Core/Src/spi.c ****   hspi1.Init.DataSize = SPI_DATASIZE_8BIT;
  51              		.loc 1 43 3 is_stmt 1 view .LVU7
  52              		.loc 1 43 23 is_stmt 0 view .LVU8
  53 0012 C360     		str	r3, [r0, #12]
  44:Core/Src/spi.c ****   hspi1.Init.CLKPolarity = SPI_POLARITY_LOW;
  54              		.loc 1 44 3 is_stmt 1 view .LVU9
  55              		.loc 1 44 26 is_stmt 0 view .LVU10
  56 0014 0361     		str	r3, [r0, #16]
  45:Core/Src/spi.c ****   hspi1.Init.CLKPhase = SPI_PHASE_1EDGE;
  57              		.loc 1 45 3 is_stmt 1 view .LVU11
  58              		.loc 1 45 23 is_stmt 0 view .LVU12
  59 0016 4361     		str	r3, [r0, #20]
  46:Core/Src/spi.c ****   hspi1.Init.NSS = SPI_NSS_SOFT;
  60              		.loc 1 46 3 is_stmt 1 view .LVU13
  61              		.loc 1 46 18 is_stmt 0 view .LVU14
  62 0018 4FF40072 		mov	r2, #512
  63 001c 8261     		str	r2, [r0, #24]
  47:Core/Src/spi.c ****   hspi1.Init.BaudRatePrescaler = SPI_BAUDRATEPRESCALER_2;
  64              		.loc 1 47 3 is_stmt 1 view .LVU15
  65              		.loc 1 47 32 is_stmt 0 view .LVU16
  66 001e C361     		str	r3, [r0, #28]
  48:Core/Src/spi.c ****   hspi1.Init.FirstBit = SPI_FIRSTBIT_MSB;
  67              		.loc 1 48 3 is_stmt 1 view .LVU17
ARM GAS  C:\Users\papai\AppData\Local\Temp\ccYc4VnP.s 			page 3


  68              		.loc 1 48 23 is_stmt 0 view .LVU18
  69 0020 0362     		str	r3, [r0, #32]
  49:Core/Src/spi.c ****   hspi1.Init.TIMode = SPI_TIMODE_DISABLE;
  70              		.loc 1 49 3 is_stmt 1 view .LVU19
  71              		.loc 1 49 21 is_stmt 0 view .LVU20
  72 0022 4362     		str	r3, [r0, #36]
  50:Core/Src/spi.c ****   hspi1.Init.CRCCalculation = SPI_CRCCALCULATION_DISABLE;
  73              		.loc 1 50 3 is_stmt 1 view .LVU21
  74              		.loc 1 50 29 is_stmt 0 view .LVU22
  75 0024 8362     		str	r3, [r0, #40]
  51:Core/Src/spi.c ****   hspi1.Init.CRCPolynomial = 10;
  76              		.loc 1 51 3 is_stmt 1 view .LVU23
  77              		.loc 1 51 28 is_stmt 0 view .LVU24
  78 0026 0A23     		movs	r3, #10
  79 0028 C362     		str	r3, [r0, #44]
  52:Core/Src/spi.c ****   if (HAL_SPI_Init(&hspi1) != HAL_OK)
  80              		.loc 1 52 3 is_stmt 1 view .LVU25
  81              		.loc 1 52 7 is_stmt 0 view .LVU26
  82 002a FFF7FEFF 		bl	HAL_SPI_Init
  83              	.LVL0:
  84              		.loc 1 52 6 view .LVU27
  85 002e 00B9     		cbnz	r0, .L4
  86              	.L1:
  53:Core/Src/spi.c ****   {
  54:Core/Src/spi.c ****     Error_Handler();
  55:Core/Src/spi.c ****   }
  56:Core/Src/spi.c ****   /* USER CODE BEGIN SPI1_Init 2 */
  57:Core/Src/spi.c **** 
  58:Core/Src/spi.c ****   /* USER CODE END SPI1_Init 2 */
  59:Core/Src/spi.c **** 
  60:Core/Src/spi.c **** }
  87              		.loc 1 60 1 view .LVU28
  88 0030 08BD     		pop	{r3, pc}
  89              	.L4:
  54:Core/Src/spi.c ****   }
  90              		.loc 1 54 5 is_stmt 1 view .LVU29
  91 0032 FFF7FEFF 		bl	Error_Handler
  92              	.LVL1:
  93              		.loc 1 60 1 is_stmt 0 view .LVU30
  94 0036 FBE7     		b	.L1
  95              	.L6:
  96              		.align	2
  97              	.L5:
  98 0038 00000000 		.word	.LANCHOR0
  99 003c 00300140 		.word	1073819648
 100              		.cfi_endproc
 101              	.LFE130:
 103              		.section	.text.HAL_SPI_MspInit,"ax",%progbits
 104              		.align	1
 105              		.global	HAL_SPI_MspInit
 106              		.syntax unified
 107              		.thumb
 108              		.thumb_func
 110              	HAL_SPI_MspInit:
 111              	.LVL2:
 112              	.LFB131:
  61:Core/Src/spi.c **** 
ARM GAS  C:\Users\papai\AppData\Local\Temp\ccYc4VnP.s 			page 4


  62:Core/Src/spi.c **** void HAL_SPI_MspInit(SPI_HandleTypeDef* spiHandle)
  63:Core/Src/spi.c **** {
 113              		.loc 1 63 1 is_stmt 1 view -0
 114              		.cfi_startproc
 115              		@ args = 0, pretend = 0, frame = 32
 116              		@ frame_needed = 0, uses_anonymous_args = 0
 117              		.loc 1 63 1 is_stmt 0 view .LVU32
 118 0000 30B5     		push	{r4, r5, lr}
 119              	.LCFI1:
 120              		.cfi_def_cfa_offset 12
 121              		.cfi_offset 4, -12
 122              		.cfi_offset 5, -8
 123              		.cfi_offset 14, -4
 124 0002 89B0     		sub	sp, sp, #36
 125              	.LCFI2:
 126              		.cfi_def_cfa_offset 48
  64:Core/Src/spi.c **** 
  65:Core/Src/spi.c ****   GPIO_InitTypeDef GPIO_InitStruct = {0};
 127              		.loc 1 65 3 is_stmt 1 view .LVU33
 128              		.loc 1 65 20 is_stmt 0 view .LVU34
 129 0004 0023     		movs	r3, #0
 130 0006 0393     		str	r3, [sp, #12]
 131 0008 0493     		str	r3, [sp, #16]
 132 000a 0593     		str	r3, [sp, #20]
 133 000c 0693     		str	r3, [sp, #24]
 134 000e 0793     		str	r3, [sp, #28]
  66:Core/Src/spi.c ****   if(spiHandle->Instance==SPI1)
 135              		.loc 1 66 3 is_stmt 1 view .LVU35
 136              		.loc 1 66 15 is_stmt 0 view .LVU36
 137 0010 0268     		ldr	r2, [r0]
 138              		.loc 1 66 5 view .LVU37
 139 0012 184B     		ldr	r3, .L11
 140 0014 9A42     		cmp	r2, r3
 141 0016 01D0     		beq	.L10
 142              	.LVL3:
 143              	.L7:
  67:Core/Src/spi.c ****   {
  68:Core/Src/spi.c ****   /* USER CODE BEGIN SPI1_MspInit 0 */
  69:Core/Src/spi.c **** 
  70:Core/Src/spi.c ****   /* USER CODE END SPI1_MspInit 0 */
  71:Core/Src/spi.c ****     /* SPI1 clock enable */
  72:Core/Src/spi.c ****     __HAL_RCC_SPI1_CLK_ENABLE();
  73:Core/Src/spi.c **** 
  74:Core/Src/spi.c ****     __HAL_RCC_GPIOB_CLK_ENABLE();
  75:Core/Src/spi.c ****     /**SPI1 GPIO Configuration
  76:Core/Src/spi.c ****     PB3     ------> SPI1_SCK
  77:Core/Src/spi.c ****     PB4     ------> SPI1_MISO
  78:Core/Src/spi.c ****     PB5     ------> SPI1_MOSI
  79:Core/Src/spi.c ****     */
  80:Core/Src/spi.c ****     GPIO_InitStruct.Pin = GPIO_PIN_3|GPIO_PIN_4|GPIO_PIN_5;
  81:Core/Src/spi.c ****     GPIO_InitStruct.Mode = GPIO_MODE_AF_PP;
  82:Core/Src/spi.c ****     GPIO_InitStruct.Pull = GPIO_NOPULL;
  83:Core/Src/spi.c ****     GPIO_InitStruct.Speed = GPIO_SPEED_FREQ_VERY_HIGH;
  84:Core/Src/spi.c ****     GPIO_InitStruct.Alternate = GPIO_AF5_SPI1;
  85:Core/Src/spi.c ****     HAL_GPIO_Init(GPIOB, &GPIO_InitStruct);
  86:Core/Src/spi.c **** 
  87:Core/Src/spi.c ****     /* SPI1 interrupt Init */
ARM GAS  C:\Users\papai\AppData\Local\Temp\ccYc4VnP.s 			page 5


  88:Core/Src/spi.c ****     HAL_NVIC_SetPriority(SPI1_IRQn, 5, 0);
  89:Core/Src/spi.c ****     HAL_NVIC_EnableIRQ(SPI1_IRQn);
  90:Core/Src/spi.c ****   /* USER CODE BEGIN SPI1_MspInit 1 */
  91:Core/Src/spi.c **** 
  92:Core/Src/spi.c ****   /* USER CODE END SPI1_MspInit 1 */
  93:Core/Src/spi.c ****   }
  94:Core/Src/spi.c **** }
 144              		.loc 1 94 1 view .LVU38
 145 0018 09B0     		add	sp, sp, #36
 146              	.LCFI3:
 147              		.cfi_remember_state
 148              		.cfi_def_cfa_offset 12
 149              		@ sp needed
 150 001a 30BD     		pop	{r4, r5, pc}
 151              	.LVL4:
 152              	.L10:
 153              	.LCFI4:
 154              		.cfi_restore_state
  72:Core/Src/spi.c **** 
 155              		.loc 1 72 5 is_stmt 1 view .LVU39
 156              	.LBB2:
  72:Core/Src/spi.c **** 
 157              		.loc 1 72 5 view .LVU40
 158 001c 0024     		movs	r4, #0
 159 001e 0194     		str	r4, [sp, #4]
  72:Core/Src/spi.c **** 
 160              		.loc 1 72 5 view .LVU41
 161 0020 03F58433 		add	r3, r3, #67584
 162 0024 5A6C     		ldr	r2, [r3, #68]
 163 0026 42F48052 		orr	r2, r2, #4096
 164 002a 5A64     		str	r2, [r3, #68]
  72:Core/Src/spi.c **** 
 165              		.loc 1 72 5 view .LVU42
 166 002c 5A6C     		ldr	r2, [r3, #68]
 167 002e 02F48052 		and	r2, r2, #4096
 168 0032 0192     		str	r2, [sp, #4]
  72:Core/Src/spi.c **** 
 169              		.loc 1 72 5 view .LVU43
 170 0034 019A     		ldr	r2, [sp, #4]
 171              	.LBE2:
  72:Core/Src/spi.c **** 
 172              		.loc 1 72 5 view .LVU44
  74:Core/Src/spi.c ****     /**SPI1 GPIO Configuration
 173              		.loc 1 74 5 view .LVU45
 174              	.LBB3:
  74:Core/Src/spi.c ****     /**SPI1 GPIO Configuration
 175              		.loc 1 74 5 view .LVU46
 176 0036 0294     		str	r4, [sp, #8]
  74:Core/Src/spi.c ****     /**SPI1 GPIO Configuration
 177              		.loc 1 74 5 view .LVU47
 178 0038 1A6B     		ldr	r2, [r3, #48]
 179 003a 42F00202 		orr	r2, r2, #2
 180 003e 1A63     		str	r2, [r3, #48]
  74:Core/Src/spi.c ****     /**SPI1 GPIO Configuration
 181              		.loc 1 74 5 view .LVU48
 182 0040 1B6B     		ldr	r3, [r3, #48]
 183 0042 03F00203 		and	r3, r3, #2
ARM GAS  C:\Users\papai\AppData\Local\Temp\ccYc4VnP.s 			page 6


 184 0046 0293     		str	r3, [sp, #8]
  74:Core/Src/spi.c ****     /**SPI1 GPIO Configuration
 185              		.loc 1 74 5 view .LVU49
 186 0048 029B     		ldr	r3, [sp, #8]
 187              	.LBE3:
  74:Core/Src/spi.c ****     /**SPI1 GPIO Configuration
 188              		.loc 1 74 5 view .LVU50
  80:Core/Src/spi.c ****     GPIO_InitStruct.Mode = GPIO_MODE_AF_PP;
 189              		.loc 1 80 5 view .LVU51
  80:Core/Src/spi.c ****     GPIO_InitStruct.Mode = GPIO_MODE_AF_PP;
 190              		.loc 1 80 25 is_stmt 0 view .LVU52
 191 004a 3823     		movs	r3, #56
 192 004c 0393     		str	r3, [sp, #12]
  81:Core/Src/spi.c ****     GPIO_InitStruct.Pull = GPIO_NOPULL;
 193              		.loc 1 81 5 is_stmt 1 view .LVU53
  81:Core/Src/spi.c ****     GPIO_InitStruct.Pull = GPIO_NOPULL;
 194              		.loc 1 81 26 is_stmt 0 view .LVU54
 195 004e 0223     		movs	r3, #2
 196 0050 0493     		str	r3, [sp, #16]
  82:Core/Src/spi.c ****     GPIO_InitStruct.Speed = GPIO_SPEED_FREQ_VERY_HIGH;
 197              		.loc 1 82 5 is_stmt 1 view .LVU55
  83:Core/Src/spi.c ****     GPIO_InitStruct.Alternate = GPIO_AF5_SPI1;
 198              		.loc 1 83 5 view .LVU56
  83:Core/Src/spi.c ****     GPIO_InitStruct.Alternate = GPIO_AF5_SPI1;
 199              		.loc 1 83 27 is_stmt 0 view .LVU57
 200 0052 0323     		movs	r3, #3
 201 0054 0693     		str	r3, [sp, #24]
  84:Core/Src/spi.c ****     HAL_GPIO_Init(GPIOB, &GPIO_InitStruct);
 202              		.loc 1 84 5 is_stmt 1 view .LVU58
  84:Core/Src/spi.c ****     HAL_GPIO_Init(GPIOB, &GPIO_InitStruct);
 203              		.loc 1 84 31 is_stmt 0 view .LVU59
 204 0056 0525     		movs	r5, #5
 205 0058 0795     		str	r5, [sp, #28]
  85:Core/Src/spi.c **** 
 206              		.loc 1 85 5 is_stmt 1 view .LVU60
 207 005a 03A9     		add	r1, sp, #12
 208 005c 0648     		ldr	r0, .L11+4
 209              	.LVL5:
  85:Core/Src/spi.c **** 
 210              		.loc 1 85 5 is_stmt 0 view .LVU61
 211 005e FFF7FEFF 		bl	HAL_GPIO_Init
 212              	.LVL6:
  88:Core/Src/spi.c ****     HAL_NVIC_EnableIRQ(SPI1_IRQn);
 213              		.loc 1 88 5 is_stmt 1 view .LVU62
 214 0062 2246     		mov	r2, r4
 215 0064 2946     		mov	r1, r5
 216 0066 2320     		movs	r0, #35
 217 0068 FFF7FEFF 		bl	HAL_NVIC_SetPriority
 218              	.LVL7:
  89:Core/Src/spi.c ****   /* USER CODE BEGIN SPI1_MspInit 1 */
 219              		.loc 1 89 5 view .LVU63
 220 006c 2320     		movs	r0, #35
 221 006e FFF7FEFF 		bl	HAL_NVIC_EnableIRQ
 222              	.LVL8:
 223              		.loc 1 94 1 is_stmt 0 view .LVU64
 224 0072 D1E7     		b	.L7
 225              	.L12:
ARM GAS  C:\Users\papai\AppData\Local\Temp\ccYc4VnP.s 			page 7


 226              		.align	2
 227              	.L11:
 228 0074 00300140 		.word	1073819648
 229 0078 00040240 		.word	1073873920
 230              		.cfi_endproc
 231              	.LFE131:
 233              		.section	.text.HAL_SPI_MspDeInit,"ax",%progbits
 234              		.align	1
 235              		.global	HAL_SPI_MspDeInit
 236              		.syntax unified
 237              		.thumb
 238              		.thumb_func
 240              	HAL_SPI_MspDeInit:
 241              	.LVL9:
 242              	.LFB132:
  95:Core/Src/spi.c **** 
  96:Core/Src/spi.c **** void HAL_SPI_MspDeInit(SPI_HandleTypeDef* spiHandle)
  97:Core/Src/spi.c **** {
 243              		.loc 1 97 1 is_stmt 1 view -0
 244              		.cfi_startproc
 245              		@ args = 0, pretend = 0, frame = 0
 246              		@ frame_needed = 0, uses_anonymous_args = 0
 247              		.loc 1 97 1 is_stmt 0 view .LVU66
 248 0000 08B5     		push	{r3, lr}
 249              	.LCFI5:
 250              		.cfi_def_cfa_offset 8
 251              		.cfi_offset 3, -8
 252              		.cfi_offset 14, -4
  98:Core/Src/spi.c **** 
  99:Core/Src/spi.c ****   if(spiHandle->Instance==SPI1)
 253              		.loc 1 99 3 is_stmt 1 view .LVU67
 254              		.loc 1 99 15 is_stmt 0 view .LVU68
 255 0002 0268     		ldr	r2, [r0]
 256              		.loc 1 99 5 view .LVU69
 257 0004 084B     		ldr	r3, .L17
 258 0006 9A42     		cmp	r2, r3
 259 0008 00D0     		beq	.L16
 260              	.LVL10:
 261              	.L13:
 100:Core/Src/spi.c ****   {
 101:Core/Src/spi.c ****   /* USER CODE BEGIN SPI1_MspDeInit 0 */
 102:Core/Src/spi.c **** 
 103:Core/Src/spi.c ****   /* USER CODE END SPI1_MspDeInit 0 */
 104:Core/Src/spi.c ****     /* Peripheral clock disable */
 105:Core/Src/spi.c ****     __HAL_RCC_SPI1_CLK_DISABLE();
 106:Core/Src/spi.c **** 
 107:Core/Src/spi.c ****     /**SPI1 GPIO Configuration
 108:Core/Src/spi.c ****     PB3     ------> SPI1_SCK
 109:Core/Src/spi.c ****     PB4     ------> SPI1_MISO
 110:Core/Src/spi.c ****     PB5     ------> SPI1_MOSI
 111:Core/Src/spi.c ****     */
 112:Core/Src/spi.c ****     HAL_GPIO_DeInit(GPIOB, GPIO_PIN_3|GPIO_PIN_4|GPIO_PIN_5);
 113:Core/Src/spi.c **** 
 114:Core/Src/spi.c ****     /* SPI1 interrupt Deinit */
 115:Core/Src/spi.c ****     HAL_NVIC_DisableIRQ(SPI1_IRQn);
 116:Core/Src/spi.c ****   /* USER CODE BEGIN SPI1_MspDeInit 1 */
 117:Core/Src/spi.c **** 
ARM GAS  C:\Users\papai\AppData\Local\Temp\ccYc4VnP.s 			page 8


 118:Core/Src/spi.c ****   /* USER CODE END SPI1_MspDeInit 1 */
 119:Core/Src/spi.c ****   }
 120:Core/Src/spi.c **** }
 262              		.loc 1 120 1 view .LVU70
 263 000a 08BD     		pop	{r3, pc}
 264              	.LVL11:
 265              	.L16:
 105:Core/Src/spi.c **** 
 266              		.loc 1 105 5 is_stmt 1 view .LVU71
 267 000c 074A     		ldr	r2, .L17+4
 268 000e 536C     		ldr	r3, [r2, #68]
 269 0010 23F48053 		bic	r3, r3, #4096
 270 0014 5364     		str	r3, [r2, #68]
 112:Core/Src/spi.c **** 
 271              		.loc 1 112 5 view .LVU72
 272 0016 3821     		movs	r1, #56
 273 0018 0548     		ldr	r0, .L17+8
 274              	.LVL12:
 112:Core/Src/spi.c **** 
 275              		.loc 1 112 5 is_stmt 0 view .LVU73
 276 001a FFF7FEFF 		bl	HAL_GPIO_DeInit
 277              	.LVL13:
 115:Core/Src/spi.c ****   /* USER CODE BEGIN SPI1_MspDeInit 1 */
 278              		.loc 1 115 5 is_stmt 1 view .LVU74
 279 001e 2320     		movs	r0, #35
 280 0020 FFF7FEFF 		bl	HAL_NVIC_DisableIRQ
 281              	.LVL14:
 282              		.loc 1 120 1 is_stmt 0 view .LVU75
 283 0024 F1E7     		b	.L13
 284              	.L18:
 285 0026 00BF     		.align	2
 286              	.L17:
 287 0028 00300140 		.word	1073819648
 288 002c 00380240 		.word	1073887232
 289 0030 00040240 		.word	1073873920
 290              		.cfi_endproc
 291              	.LFE132:
 293              		.global	hspi1
 294              		.section	.bss.hspi1,"aw",%nobits
 295              		.align	2
 296              		.set	.LANCHOR0,. + 0
 299              	hspi1:
 300 0000 00000000 		.space	88
 300      00000000 
 300      00000000 
 300      00000000 
 300      00000000 
 301              		.text
 302              	.Letext0:
 303              		.file 2 "c:\\program files (x86)\\gnu arm embedded toolchain\\10 2021.10\\arm-none-eabi\\include\\
 304              		.file 3 "c:\\program files (x86)\\gnu arm embedded toolchain\\10 2021.10\\arm-none-eabi\\include\\
 305              		.file 4 "Drivers/CMSIS/Device/ST/STM32F4xx/Include/stm32f407xx.h"
 306              		.file 5 "Drivers/STM32F4xx_HAL_Driver/Inc/stm32f4xx_hal_def.h"
 307              		.file 6 "Drivers/STM32F4xx_HAL_Driver/Inc/stm32f4xx_hal_gpio.h"
 308              		.file 7 "Drivers/STM32F4xx_HAL_Driver/Inc/stm32f4xx_hal_dma.h"
 309              		.file 8 "Drivers/STM32F4xx_HAL_Driver/Inc/stm32f4xx_hal_spi.h"
 310              		.file 9 "Drivers/STM32F4xx_HAL_Driver/Inc/stm32f4xx_hal_cortex.h"
ARM GAS  C:\Users\papai\AppData\Local\Temp\ccYc4VnP.s 			page 9


 311              		.file 10 "Core/Inc/main.h"
 312              		.file 11 "Core/Inc/spi.h"
ARM GAS  C:\Users\papai\AppData\Local\Temp\ccYc4VnP.s 			page 10

