ARM GAS  C:\Users\papai\AppData\Local\Temp\cc7Abm7v.s 			page 1


   1              		.cpu cortex-m4
   2              		.arch armv7e-m
   3              		.fpu fpv4-sp-d16
   4              		.eabi_attribute 27, 1
   5              		.eabi_attribute 28, 1
   6              		.eabi_attribute 20, 1
   7              		.eabi_attribute 21, 1
   8              		.eabi_attribute 23, 3
   9              		.eabi_attribute 24, 1
  10              		.eabi_attribute 25, 1
  11              		.eabi_attribute 26, 1
  12              		.eabi_attribute 30, 1
  13              		.eabi_attribute 34, 1
  14              		.eabi_attribute 18, 4
  15              		.file	"usart.c"
  16              		.text
  17              	.Ltext0:
  18              		.cfi_sections	.debug_frame
  19              		.section	.text.MX_USART1_Init,"ax",%progbits
  20              		.align	1
  21              		.global	MX_USART1_Init
  22              		.syntax unified
  23              		.thumb
  24              		.thumb_func
  26              	MX_USART1_Init:
  27              	.LFB130:
  28              		.file 1 "Core/Src/usart.c"
   1:Core/Src/usart.c **** /* USER CODE BEGIN Header */
   2:Core/Src/usart.c **** /**
   3:Core/Src/usart.c ****   ******************************************************************************
   4:Core/Src/usart.c ****   * @file    usart.c
   5:Core/Src/usart.c ****   * @brief   This file provides code for the configuration
   6:Core/Src/usart.c ****   *          of the USART instances.
   7:Core/Src/usart.c ****   ******************************************************************************
   8:Core/Src/usart.c ****   * @attention
   9:Core/Src/usart.c ****   *
  10:Core/Src/usart.c ****   * Copyright (c) 2023 STMicroelectronics.
  11:Core/Src/usart.c ****   * All rights reserved.
  12:Core/Src/usart.c ****   *
  13:Core/Src/usart.c ****   * This software is licensed under terms that can be found in the LICENSE file
  14:Core/Src/usart.c ****   * in the root directory of this software component.
  15:Core/Src/usart.c ****   * If no LICENSE file comes with this software, it is provided AS-IS.
  16:Core/Src/usart.c ****   *
  17:Core/Src/usart.c ****   ******************************************************************************
  18:Core/Src/usart.c ****   */
  19:Core/Src/usart.c **** /* USER CODE END Header */
  20:Core/Src/usart.c **** /* Includes ------------------------------------------------------------------*/
  21:Core/Src/usart.c **** #include "usart.h"
  22:Core/Src/usart.c **** 
  23:Core/Src/usart.c **** /* USER CODE BEGIN 0 */
  24:Core/Src/usart.c **** 
  25:Core/Src/usart.c **** /* USER CODE END 0 */
  26:Core/Src/usart.c **** 
  27:Core/Src/usart.c **** USART_HandleTypeDef husart1;
  28:Core/Src/usart.c **** 
  29:Core/Src/usart.c **** /* USART1 init function */
  30:Core/Src/usart.c **** void MX_USART1_Init(void)
ARM GAS  C:\Users\papai\AppData\Local\Temp\cc7Abm7v.s 			page 2


  31:Core/Src/usart.c **** {
  29              		.loc 1 31 1 view -0
  30              		.cfi_startproc
  31              		@ args = 0, pretend = 0, frame = 0
  32              		@ frame_needed = 0, uses_anonymous_args = 0
  33 0000 08B5     		push	{r3, lr}
  34              	.LCFI0:
  35              		.cfi_def_cfa_offset 8
  36              		.cfi_offset 3, -8
  37              		.cfi_offset 14, -4
  32:Core/Src/usart.c **** 
  33:Core/Src/usart.c ****   /* USER CODE BEGIN USART1_Init 0 */
  34:Core/Src/usart.c **** 
  35:Core/Src/usart.c ****   /* USER CODE END USART1_Init 0 */
  36:Core/Src/usart.c **** 
  37:Core/Src/usart.c ****   /* USER CODE BEGIN USART1_Init 1 */
  38:Core/Src/usart.c **** 
  39:Core/Src/usart.c ****   /* USER CODE END USART1_Init 1 */
  40:Core/Src/usart.c ****   husart1.Instance = USART1;
  38              		.loc 1 40 3 view .LVU1
  39              		.loc 1 40 20 is_stmt 0 view .LVU2
  40 0002 0B48     		ldr	r0, .L5
  41 0004 0B4B     		ldr	r3, .L5+4
  42 0006 0360     		str	r3, [r0]
  41:Core/Src/usart.c ****   husart1.Init.BaudRate = 115200;
  43              		.loc 1 41 3 is_stmt 1 view .LVU3
  44              		.loc 1 41 25 is_stmt 0 view .LVU4
  45 0008 4FF4E133 		mov	r3, #115200
  46 000c 4360     		str	r3, [r0, #4]
  42:Core/Src/usart.c ****   husart1.Init.WordLength = USART_WORDLENGTH_8B;
  47              		.loc 1 42 3 is_stmt 1 view .LVU5
  48              		.loc 1 42 27 is_stmt 0 view .LVU6
  49 000e 0023     		movs	r3, #0
  50 0010 8360     		str	r3, [r0, #8]
  43:Core/Src/usart.c ****   husart1.Init.StopBits = USART_STOPBITS_1;
  51              		.loc 1 43 3 is_stmt 1 view .LVU7
  52              		.loc 1 43 25 is_stmt 0 view .LVU8
  53 0012 C360     		str	r3, [r0, #12]
  44:Core/Src/usart.c ****   husart1.Init.Parity = USART_PARITY_NONE;
  54              		.loc 1 44 3 is_stmt 1 view .LVU9
  55              		.loc 1 44 23 is_stmt 0 view .LVU10
  56 0014 0361     		str	r3, [r0, #16]
  45:Core/Src/usart.c ****   husart1.Init.Mode = USART_MODE_TX_RX;
  57              		.loc 1 45 3 is_stmt 1 view .LVU11
  58              		.loc 1 45 21 is_stmt 0 view .LVU12
  59 0016 0C22     		movs	r2, #12
  60 0018 4261     		str	r2, [r0, #20]
  46:Core/Src/usart.c ****   husart1.Init.CLKPolarity = USART_POLARITY_LOW;
  61              		.loc 1 46 3 is_stmt 1 view .LVU13
  62              		.loc 1 46 28 is_stmt 0 view .LVU14
  63 001a 8361     		str	r3, [r0, #24]
  47:Core/Src/usart.c ****   husart1.Init.CLKPhase = USART_PHASE_1EDGE;
  64              		.loc 1 47 3 is_stmt 1 view .LVU15
  65              		.loc 1 47 25 is_stmt 0 view .LVU16
  66 001c C361     		str	r3, [r0, #28]
  48:Core/Src/usart.c ****   husart1.Init.CLKLastBit = USART_LASTBIT_DISABLE;
  67              		.loc 1 48 3 is_stmt 1 view .LVU17
ARM GAS  C:\Users\papai\AppData\Local\Temp\cc7Abm7v.s 			page 3


  68              		.loc 1 48 27 is_stmt 0 view .LVU18
  69 001e 0362     		str	r3, [r0, #32]
  49:Core/Src/usart.c ****   if (HAL_USART_Init(&husart1) != HAL_OK)
  70              		.loc 1 49 3 is_stmt 1 view .LVU19
  71              		.loc 1 49 7 is_stmt 0 view .LVU20
  72 0020 FFF7FEFF 		bl	HAL_USART_Init
  73              	.LVL0:
  74              		.loc 1 49 6 view .LVU21
  75 0024 00B9     		cbnz	r0, .L4
  76              	.L1:
  50:Core/Src/usart.c ****   {
  51:Core/Src/usart.c ****     Error_Handler();
  52:Core/Src/usart.c ****   }
  53:Core/Src/usart.c ****   /* USER CODE BEGIN USART1_Init 2 */
  54:Core/Src/usart.c **** 
  55:Core/Src/usart.c ****   /* USER CODE END USART1_Init 2 */
  56:Core/Src/usart.c **** 
  57:Core/Src/usart.c **** }
  77              		.loc 1 57 1 view .LVU22
  78 0026 08BD     		pop	{r3, pc}
  79              	.L4:
  51:Core/Src/usart.c ****   }
  80              		.loc 1 51 5 is_stmt 1 view .LVU23
  81 0028 FFF7FEFF 		bl	Error_Handler
  82              	.LVL1:
  83              		.loc 1 57 1 is_stmt 0 view .LVU24
  84 002c FBE7     		b	.L1
  85              	.L6:
  86 002e 00BF     		.align	2
  87              	.L5:
  88 0030 00000000 		.word	.LANCHOR0
  89 0034 00100140 		.word	1073811456
  90              		.cfi_endproc
  91              	.LFE130:
  93              		.section	.text.HAL_USART_MspInit,"ax",%progbits
  94              		.align	1
  95              		.global	HAL_USART_MspInit
  96              		.syntax unified
  97              		.thumb
  98              		.thumb_func
 100              	HAL_USART_MspInit:
 101              	.LVL2:
 102              	.LFB131:
  58:Core/Src/usart.c **** 
  59:Core/Src/usart.c **** void HAL_USART_MspInit(USART_HandleTypeDef* usartHandle)
  60:Core/Src/usart.c **** {
 103              		.loc 1 60 1 is_stmt 1 view -0
 104              		.cfi_startproc
 105              		@ args = 0, pretend = 0, frame = 32
 106              		@ frame_needed = 0, uses_anonymous_args = 0
 107              		.loc 1 60 1 is_stmt 0 view .LVU26
 108 0000 10B5     		push	{r4, lr}
 109              	.LCFI1:
 110              		.cfi_def_cfa_offset 8
 111              		.cfi_offset 4, -8
 112              		.cfi_offset 14, -4
 113 0002 88B0     		sub	sp, sp, #32
ARM GAS  C:\Users\papai\AppData\Local\Temp\cc7Abm7v.s 			page 4


 114              	.LCFI2:
 115              		.cfi_def_cfa_offset 40
  61:Core/Src/usart.c **** 
  62:Core/Src/usart.c ****   GPIO_InitTypeDef GPIO_InitStruct = {0};
 116              		.loc 1 62 3 is_stmt 1 view .LVU27
 117              		.loc 1 62 20 is_stmt 0 view .LVU28
 118 0004 0023     		movs	r3, #0
 119 0006 0393     		str	r3, [sp, #12]
 120 0008 0493     		str	r3, [sp, #16]
 121 000a 0593     		str	r3, [sp, #20]
 122 000c 0693     		str	r3, [sp, #24]
 123 000e 0793     		str	r3, [sp, #28]
  63:Core/Src/usart.c ****   if(usartHandle->Instance==USART1)
 124              		.loc 1 63 3 is_stmt 1 view .LVU29
 125              		.loc 1 63 17 is_stmt 0 view .LVU30
 126 0010 0268     		ldr	r2, [r0]
 127              		.loc 1 63 5 view .LVU31
 128 0012 03F18043 		add	r3, r3, #1073741824
 129 0016 03F58833 		add	r3, r3, #69632
 130 001a 9A42     		cmp	r2, r3
 131 001c 01D0     		beq	.L10
 132              	.LVL3:
 133              	.L7:
  64:Core/Src/usart.c ****   {
  65:Core/Src/usart.c ****   /* USER CODE BEGIN USART1_MspInit 0 */
  66:Core/Src/usart.c **** 
  67:Core/Src/usart.c ****   /* USER CODE END USART1_MspInit 0 */
  68:Core/Src/usart.c ****     /* USART1 clock enable */
  69:Core/Src/usart.c ****     __HAL_RCC_USART1_CLK_ENABLE();
  70:Core/Src/usart.c **** 
  71:Core/Src/usart.c ****     __HAL_RCC_GPIOA_CLK_ENABLE();
  72:Core/Src/usart.c ****     /**USART1 GPIO Configuration
  73:Core/Src/usart.c ****     PA8     ------> USART1_CK
  74:Core/Src/usart.c ****     PA9     ------> USART1_TX
  75:Core/Src/usart.c ****     PA10     ------> USART1_RX
  76:Core/Src/usart.c ****     */
  77:Core/Src/usart.c ****     GPIO_InitStruct.Pin = GPIO_PIN_8|GPIO_PIN_9|GPIO_PIN_10;
  78:Core/Src/usart.c ****     GPIO_InitStruct.Mode = GPIO_MODE_AF_PP;
  79:Core/Src/usart.c ****     GPIO_InitStruct.Pull = GPIO_NOPULL;
  80:Core/Src/usart.c ****     GPIO_InitStruct.Speed = GPIO_SPEED_FREQ_VERY_HIGH;
  81:Core/Src/usart.c ****     GPIO_InitStruct.Alternate = GPIO_AF7_USART1;
  82:Core/Src/usart.c ****     HAL_GPIO_Init(GPIOA, &GPIO_InitStruct);
  83:Core/Src/usart.c **** 
  84:Core/Src/usart.c ****     /* USART1 interrupt Init */
  85:Core/Src/usart.c ****     HAL_NVIC_SetPriority(USART1_IRQn, 5, 0);
  86:Core/Src/usart.c ****     HAL_NVIC_EnableIRQ(USART1_IRQn);
  87:Core/Src/usart.c ****   /* USER CODE BEGIN USART1_MspInit 1 */
  88:Core/Src/usart.c **** 
  89:Core/Src/usart.c ****   /* USER CODE END USART1_MspInit 1 */
  90:Core/Src/usart.c ****   }
  91:Core/Src/usart.c **** }
 134              		.loc 1 91 1 view .LVU32
 135 001e 08B0     		add	sp, sp, #32
 136              	.LCFI3:
 137              		.cfi_remember_state
 138              		.cfi_def_cfa_offset 8
 139              		@ sp needed
ARM GAS  C:\Users\papai\AppData\Local\Temp\cc7Abm7v.s 			page 5


 140 0020 10BD     		pop	{r4, pc}
 141              	.LVL4:
 142              	.L10:
 143              	.LCFI4:
 144              		.cfi_restore_state
  69:Core/Src/usart.c **** 
 145              		.loc 1 69 5 is_stmt 1 view .LVU33
 146              	.LBB2:
  69:Core/Src/usart.c **** 
 147              		.loc 1 69 5 view .LVU34
 148 0022 0024     		movs	r4, #0
 149 0024 0194     		str	r4, [sp, #4]
  69:Core/Src/usart.c **** 
 150              		.loc 1 69 5 view .LVU35
 151 0026 03F59433 		add	r3, r3, #75776
 152 002a 5A6C     		ldr	r2, [r3, #68]
 153 002c 42F01002 		orr	r2, r2, #16
 154 0030 5A64     		str	r2, [r3, #68]
  69:Core/Src/usart.c **** 
 155              		.loc 1 69 5 view .LVU36
 156 0032 5A6C     		ldr	r2, [r3, #68]
 157 0034 02F01002 		and	r2, r2, #16
 158 0038 0192     		str	r2, [sp, #4]
  69:Core/Src/usart.c **** 
 159              		.loc 1 69 5 view .LVU37
 160 003a 019A     		ldr	r2, [sp, #4]
 161              	.LBE2:
  69:Core/Src/usart.c **** 
 162              		.loc 1 69 5 view .LVU38
  71:Core/Src/usart.c ****     /**USART1 GPIO Configuration
 163              		.loc 1 71 5 view .LVU39
 164              	.LBB3:
  71:Core/Src/usart.c ****     /**USART1 GPIO Configuration
 165              		.loc 1 71 5 view .LVU40
 166 003c 0294     		str	r4, [sp, #8]
  71:Core/Src/usart.c ****     /**USART1 GPIO Configuration
 167              		.loc 1 71 5 view .LVU41
 168 003e 1A6B     		ldr	r2, [r3, #48]
 169 0040 42F00102 		orr	r2, r2, #1
 170 0044 1A63     		str	r2, [r3, #48]
  71:Core/Src/usart.c ****     /**USART1 GPIO Configuration
 171              		.loc 1 71 5 view .LVU42
 172 0046 1B6B     		ldr	r3, [r3, #48]
 173 0048 03F00103 		and	r3, r3, #1
 174 004c 0293     		str	r3, [sp, #8]
  71:Core/Src/usart.c ****     /**USART1 GPIO Configuration
 175              		.loc 1 71 5 view .LVU43
 176 004e 029B     		ldr	r3, [sp, #8]
 177              	.LBE3:
  71:Core/Src/usart.c ****     /**USART1 GPIO Configuration
 178              		.loc 1 71 5 view .LVU44
  77:Core/Src/usart.c ****     GPIO_InitStruct.Mode = GPIO_MODE_AF_PP;
 179              		.loc 1 77 5 view .LVU45
  77:Core/Src/usart.c ****     GPIO_InitStruct.Mode = GPIO_MODE_AF_PP;
 180              		.loc 1 77 25 is_stmt 0 view .LVU46
 181 0050 4FF4E063 		mov	r3, #1792
 182 0054 0393     		str	r3, [sp, #12]
ARM GAS  C:\Users\papai\AppData\Local\Temp\cc7Abm7v.s 			page 6


  78:Core/Src/usart.c ****     GPIO_InitStruct.Pull = GPIO_NOPULL;
 183              		.loc 1 78 5 is_stmt 1 view .LVU47
  78:Core/Src/usart.c ****     GPIO_InitStruct.Pull = GPIO_NOPULL;
 184              		.loc 1 78 26 is_stmt 0 view .LVU48
 185 0056 0223     		movs	r3, #2
 186 0058 0493     		str	r3, [sp, #16]
  79:Core/Src/usart.c ****     GPIO_InitStruct.Speed = GPIO_SPEED_FREQ_VERY_HIGH;
 187              		.loc 1 79 5 is_stmt 1 view .LVU49
  80:Core/Src/usart.c ****     GPIO_InitStruct.Alternate = GPIO_AF7_USART1;
 188              		.loc 1 80 5 view .LVU50
  80:Core/Src/usart.c ****     GPIO_InitStruct.Alternate = GPIO_AF7_USART1;
 189              		.loc 1 80 27 is_stmt 0 view .LVU51
 190 005a 0323     		movs	r3, #3
 191 005c 0693     		str	r3, [sp, #24]
  81:Core/Src/usart.c ****     HAL_GPIO_Init(GPIOA, &GPIO_InitStruct);
 192              		.loc 1 81 5 is_stmt 1 view .LVU52
  81:Core/Src/usart.c ****     HAL_GPIO_Init(GPIOA, &GPIO_InitStruct);
 193              		.loc 1 81 31 is_stmt 0 view .LVU53
 194 005e 0723     		movs	r3, #7
 195 0060 0793     		str	r3, [sp, #28]
  82:Core/Src/usart.c **** 
 196              		.loc 1 82 5 is_stmt 1 view .LVU54
 197 0062 03A9     		add	r1, sp, #12
 198 0064 0548     		ldr	r0, .L11
 199              	.LVL5:
  82:Core/Src/usart.c **** 
 200              		.loc 1 82 5 is_stmt 0 view .LVU55
 201 0066 FFF7FEFF 		bl	HAL_GPIO_Init
 202              	.LVL6:
  85:Core/Src/usart.c ****     HAL_NVIC_EnableIRQ(USART1_IRQn);
 203              		.loc 1 85 5 is_stmt 1 view .LVU56
 204 006a 2246     		mov	r2, r4
 205 006c 0521     		movs	r1, #5
 206 006e 2520     		movs	r0, #37
 207 0070 FFF7FEFF 		bl	HAL_NVIC_SetPriority
 208              	.LVL7:
  86:Core/Src/usart.c ****   /* USER CODE BEGIN USART1_MspInit 1 */
 209              		.loc 1 86 5 view .LVU57
 210 0074 2520     		movs	r0, #37
 211 0076 FFF7FEFF 		bl	HAL_NVIC_EnableIRQ
 212              	.LVL8:
 213              		.loc 1 91 1 is_stmt 0 view .LVU58
 214 007a D0E7     		b	.L7
 215              	.L12:
 216              		.align	2
 217              	.L11:
 218 007c 00000240 		.word	1073872896
 219              		.cfi_endproc
 220              	.LFE131:
 222              		.section	.text.HAL_USART_MspDeInit,"ax",%progbits
 223              		.align	1
 224              		.global	HAL_USART_MspDeInit
 225              		.syntax unified
 226              		.thumb
 227              		.thumb_func
 229              	HAL_USART_MspDeInit:
 230              	.LVL9:
ARM GAS  C:\Users\papai\AppData\Local\Temp\cc7Abm7v.s 			page 7


 231              	.LFB132:
  92:Core/Src/usart.c **** 
  93:Core/Src/usart.c **** void HAL_USART_MspDeInit(USART_HandleTypeDef* usartHandle)
  94:Core/Src/usart.c **** {
 232              		.loc 1 94 1 is_stmt 1 view -0
 233              		.cfi_startproc
 234              		@ args = 0, pretend = 0, frame = 0
 235              		@ frame_needed = 0, uses_anonymous_args = 0
 236              		.loc 1 94 1 is_stmt 0 view .LVU60
 237 0000 08B5     		push	{r3, lr}
 238              	.LCFI5:
 239              		.cfi_def_cfa_offset 8
 240              		.cfi_offset 3, -8
 241              		.cfi_offset 14, -4
  95:Core/Src/usart.c **** 
  96:Core/Src/usart.c ****   if(usartHandle->Instance==USART1)
 242              		.loc 1 96 3 is_stmt 1 view .LVU61
 243              		.loc 1 96 17 is_stmt 0 view .LVU62
 244 0002 0268     		ldr	r2, [r0]
 245              		.loc 1 96 5 view .LVU63
 246 0004 084B     		ldr	r3, .L17
 247 0006 9A42     		cmp	r2, r3
 248 0008 00D0     		beq	.L16
 249              	.LVL10:
 250              	.L13:
  97:Core/Src/usart.c ****   {
  98:Core/Src/usart.c ****   /* USER CODE BEGIN USART1_MspDeInit 0 */
  99:Core/Src/usart.c **** 
 100:Core/Src/usart.c ****   /* USER CODE END USART1_MspDeInit 0 */
 101:Core/Src/usart.c ****     /* Peripheral clock disable */
 102:Core/Src/usart.c ****     __HAL_RCC_USART1_CLK_DISABLE();
 103:Core/Src/usart.c **** 
 104:Core/Src/usart.c ****     /**USART1 GPIO Configuration
 105:Core/Src/usart.c ****     PA8     ------> USART1_CK
 106:Core/Src/usart.c ****     PA9     ------> USART1_TX
 107:Core/Src/usart.c ****     PA10     ------> USART1_RX
 108:Core/Src/usart.c ****     */
 109:Core/Src/usart.c ****     HAL_GPIO_DeInit(GPIOA, GPIO_PIN_8|GPIO_PIN_9|GPIO_PIN_10);
 110:Core/Src/usart.c **** 
 111:Core/Src/usart.c ****     /* USART1 interrupt Deinit */
 112:Core/Src/usart.c ****     HAL_NVIC_DisableIRQ(USART1_IRQn);
 113:Core/Src/usart.c ****   /* USER CODE BEGIN USART1_MspDeInit 1 */
 114:Core/Src/usart.c **** 
 115:Core/Src/usart.c ****   /* USER CODE END USART1_MspDeInit 1 */
 116:Core/Src/usart.c ****   }
 117:Core/Src/usart.c **** }
 251              		.loc 1 117 1 view .LVU64
 252 000a 08BD     		pop	{r3, pc}
 253              	.LVL11:
 254              	.L16:
 102:Core/Src/usart.c **** 
 255              		.loc 1 102 5 is_stmt 1 view .LVU65
 256 000c 074A     		ldr	r2, .L17+4
 257 000e 536C     		ldr	r3, [r2, #68]
 258 0010 23F01003 		bic	r3, r3, #16
 259 0014 5364     		str	r3, [r2, #68]
 109:Core/Src/usart.c **** 
ARM GAS  C:\Users\papai\AppData\Local\Temp\cc7Abm7v.s 			page 8


 260              		.loc 1 109 5 view .LVU66
 261 0016 4FF4E061 		mov	r1, #1792
 262 001a 0548     		ldr	r0, .L17+8
 263              	.LVL12:
 109:Core/Src/usart.c **** 
 264              		.loc 1 109 5 is_stmt 0 view .LVU67
 265 001c FFF7FEFF 		bl	HAL_GPIO_DeInit
 266              	.LVL13:
 112:Core/Src/usart.c ****   /* USER CODE BEGIN USART1_MspDeInit 1 */
 267              		.loc 1 112 5 is_stmt 1 view .LVU68
 268 0020 2520     		movs	r0, #37
 269 0022 FFF7FEFF 		bl	HAL_NVIC_DisableIRQ
 270              	.LVL14:
 271              		.loc 1 117 1 is_stmt 0 view .LVU69
 272 0026 F0E7     		b	.L13
 273              	.L18:
 274              		.align	2
 275              	.L17:
 276 0028 00100140 		.word	1073811456
 277 002c 00380240 		.word	1073887232
 278 0030 00000240 		.word	1073872896
 279              		.cfi_endproc
 280              	.LFE132:
 282              		.global	husart1
 283              		.section	.bss.husart1,"aw",%nobits
 284              		.align	2
 285              		.set	.LANCHOR0,. + 0
 288              	husart1:
 289 0000 00000000 		.space	68
 289      00000000 
 289      00000000 
 289      00000000 
 289      00000000 
 290              		.text
 291              	.Letext0:
 292              		.file 2 "c:\\program files (x86)\\gnu arm embedded toolchain\\10 2021.10\\arm-none-eabi\\include\\
 293              		.file 3 "c:\\program files (x86)\\gnu arm embedded toolchain\\10 2021.10\\arm-none-eabi\\include\\
 294              		.file 4 "Drivers/CMSIS/Device/ST/STM32F4xx/Include/stm32f407xx.h"
 295              		.file 5 "Drivers/STM32F4xx_HAL_Driver/Inc/stm32f4xx_hal_def.h"
 296              		.file 6 "Drivers/STM32F4xx_HAL_Driver/Inc/stm32f4xx_hal_gpio.h"
 297              		.file 7 "Drivers/STM32F4xx_HAL_Driver/Inc/stm32f4xx_hal_dma.h"
 298              		.file 8 "Drivers/STM32F4xx_HAL_Driver/Inc/stm32f4xx_hal_usart.h"
 299              		.file 9 "Drivers/STM32F4xx_HAL_Driver/Inc/stm32f4xx_hal_cortex.h"
 300              		.file 10 "Core/Inc/main.h"
 301              		.file 11 "Core/Inc/usart.h"
ARM GAS  C:\Users\papai\AppData\Local\Temp\cc7Abm7v.s 			page 9

